; Function Attrs: nounwind sspstrong uwtable
define internal i64 @addrinfo_to_sockaddr(i64 noundef %0) #0 {
  %2 = tail call ptr @rb_check_typeddata(i64 noundef %0, ptr noundef nonnull @addrinfo_type) #21
  %.not.i = icmp eq ptr %2, null
  br i1 %.not.i, label %3, label %get_addrinfo.exit

3:                                                ; preds = %1
  %4 = load i64, ptr @rb_eTypeError, align 8, !tbaa !35
  tail call void (i64, ptr, ...) @rb_raise(i64 noundef %4, ptr noundef nonnull @.str.101) #23
  unreachable

get_addrinfo.exit:                                ; preds = %1
  %5 = getelementptr inbounds nuw i8, ptr %2, i64 32
  %6 = getelementptr inbounds nuw i8, ptr %2, i64 28
  %7 = load i32, ptr %6, align 4, !tbaa !118
  %8 = zext i32 %7 to i64
  %9 = tail call i64 @rb_str_new(ptr noundef nonnull %5, i64 noundef %8) #21
  ret i64 %9
}